; Function Attrs: alwaysinline norecurse nounwind uwtable
define internal void @_ZNK4ncnn9Pooling3D7forwardERKNS_3MatERS1_RKNS_6OptionE.omp_outlined.1(ptr noalias noundef readonly captures(none) %0, ptr noalias readnone captures(none) %1, ptr noundef nonnull readonly align 4 captures(none) dereferenceable(4) %2, ptr noundef nonnull readonly align 8 captures(none) dereferenceable(72) %3, ptr noundef nonnull readonly align 4 captures(none) dereferenceable(4) %4, ptr noundef nonnull readonly align 8 captures(none) dereferenceable(72) %5) #5 personality ptr @__gxx_personality_v0 {
  %7 = alloca i32, align 4
  %8 = alloca i32, align 4
  %9 = alloca i32, align 4
  %10 = alloca i32, align 4
  %11 = load i32, ptr %2, align 4, !tbaa !48
  %12 = icmp sgt i32 %11, 0
  br i1 %12, label %13, label %43

13:                                               ; preds = %6
  %14 = add nsw i32 %11, -1
  call void @llvm.lifetime.start.p0(i64 4, ptr nonnull %7) #6
  store i32 0, ptr %7, align 4, !tbaa !48
  call void @llvm.lifetime.start.p0(i64 4, ptr nonnull %8) #6
  store i32 %14, ptr %8, align 4, !tbaa !48
  call void @llvm.lifetime.start.p0(i64 4, ptr nonnull %9) #6
  store i32 1, ptr %9, align 4, !tbaa !48
  call void @llvm.lifetime.start.p0(i64 4, ptr nonnull %10) #6
  store i32 0, ptr %10, align 4, !tbaa !48
  %15 = load i32, ptr %0, align 4, !tbaa !48
  call void @__kmpc_for_static_init_4(ptr nonnull @1, i32 %15, i32 34, ptr nonnull %10, ptr nonnull %7, ptr nonnull %8, ptr nonnull %9, i32 1, i32 1)
  %16 = load i32, ptr %8, align 4, !tbaa !48
  %17 = call i32 @llvm.smin.i32(i32 %16, i32 %14)
  store i32 %17, ptr %8, align 4, !tbaa !48
  %18 = load i32, ptr %7, align 4, !tbaa !48
  %.not36 = icmp sgt i32 %18, %17
  br i1 %.not36, label %._crit_edge38, label %.noexc.lr.ph

.noexc.lr.ph:                                     ; preds = %13
  %19 = load ptr, ptr %3, align 8, !tbaa !55, !noalias !83
  %20 = getelementptr inbounds nuw i8, ptr %3, i64 64
  %21 = load i64, ptr %20, align 8, !tbaa !56, !noalias !83
  %22 = getelementptr inbounds nuw i8, ptr %3, i64 16
  %23 = load i64, ptr %22, align 8, !tbaa !52, !noalias !83
  %factor.op.mul = mul i64 %21, %23
  %24 = load i32, ptr %4, align 4, !tbaa !48
  %25 = icmp sgt i32 %24, 0
  %26 = load ptr, ptr %5, align 8, !tbaa !55
  %27 = sext i32 %18 to i64
  br i1 %25, label %.noexc.us.preheader, label %.noexc.preheader

.noexc.preheader:                                 ; preds = %.noexc.lr.ph
  %28 = shl nsw i64 %27, 2
  %scevgep = getelementptr i8, ptr %26, i64 %28
  %29 = sub i32 %17, %18
  %30 = zext i32 %29 to i64
  %31 = shl nuw nsw i64 %30, 2
  %32 = add nuw nsw i64 %31, 4
  call void @llvm.memset.p0.i64(ptr noundef nonnull align 4 dereferenceable(1) %scevgep, i8 0, i64 %32, i1 false), !tbaa !78
  br label %._crit_edge38

.noexc.us.preheader:                              ; preds = %.noexc.lr.ph
  %33 = sitofp i32 %24 to float
  %34 = add nsw i32 %17, 1
  %wide.trip.count = zext nneg i32 %24 to i64
  %35 = fdiv fast float 1.000000e+00, %33
  br label %.noexc.us

.noexc.us:                                        ; preds = %.noexc.us.preheader, %._crit_edge.us
  %indvars.iv42 = phi i64 [ %27, %.noexc.us.preheader ], [ %indvars.iv.next43, %._crit_edge.us ]
  %.reass.us = mul i64 %factor.op.mul, %indvars.iv42
  %36 = getelementptr inbounds nuw i8, ptr %19, i64 %.reass.us
  br label %37

37:                                               ; preds = %.noexc.us, %37
  %indvars.iv = phi i64 [ 0, %.noexc.us ], [ %indvars.iv.next, %37 ]
  %.02333.us = phi float [ 0.000000e+00, %.noexc.us ], [ %40, %37 ]
  %38 = getelementptr inbounds nuw float, ptr %36, i64 %indvars.iv
  %39 = load float, ptr %38, align 4, !tbaa !78
  %40 = fadd fast float %39, %.02333.us
  %indvars.iv.next = add nuw nsw i64 %indvars.iv, 1
  %exitcond.not = icmp eq i64 %indvars.iv.next, %wide.trip.count
  br i1 %exitcond.not, label %._crit_edge.us, label %37, !llvm.loop !86

._crit_edge.us:                                   ; preds = %37
  %41 = fmul fast float %40, %35
  %42 = getelementptr inbounds nuw float, ptr %26, i64 %indvars.iv42
  store float %41, ptr %42, align 4, !tbaa !78
  %indvars.iv.next43 = add nsw i64 %indvars.iv42, 1
  %lftr.wideiv = trunc i64 %indvars.iv.next43 to i32
  %exitcond45.not = icmp eq i32 %34, %lftr.wideiv
  br i1 %exitcond45.not, label %._crit_edge38, label %.noexc.us

._crit_edge38:                                    ; preds = %._crit_edge.us, %.noexc.preheader, %13
  call void @__kmpc_for_static_fini(ptr nonnull @1, i32 %15)
  call void @llvm.lifetime.end.p0(i64 4, ptr nonnull %10) #6
  call void @llvm.lifetime.end.p0(i64 4, ptr nonnull %9) #6
  call void @llvm.lifetime.end.p0(i64 4, ptr nonnull %8) #6
  call void @llvm.lifetime.end.p0(i64 4, ptr nonnull %7) #6
  br label %43

43:                                               ; preds = %._crit_edge38, %6
  ret void
}